target datalayout = "e-m:e-p270:32:32-p271:32:32-p272:64:64-i64:64-i128:128-f80:128-n8:16:32:64-S128"
target triple = "x86_64-pc-linux-gnu"

%struct._zend_executor_globals = type { %struct._zval_struct, %struct._zval_struct, [32 x ptr], ptr, ptr, %struct._zend_array, %struct._zend_array, ptr, i32, i32, ptr, ptr, ptr, ptr, ptr, ptr, i64, ptr, ptr, i32, i32, i64, i32, i32, i32, i8, i8, %struct.zend_atomic_bool_s, %struct.zend_atomic_bool_s, ptr, i64, ptr, ptr, %struct._zend_array, %struct._zend_array, i32, i8, %struct._zval_struct, %struct._zval_struct, %struct._zend_stack, %struct._zend_stack, %struct._zend_stack, ptr, i32, i32, i64, ptr, ptr, ptr, %struct._zend_objects_store, ptr, ptr, ptr, [3 x %struct._zend_op], ptr, i8, i8, i64, i32, i32, ptr, [16 x %struct._HashTableIterator], ptr, %union._zend_function, %struct._zend_op, %struct._zend_array, i64, %struct.zend_get_gc_buffer, ptr, ptr, ptr, i64, i8, i32, ptr, ptr, i64, %struct._zend_call_stack, i64, i64, [6 x ptr] }
%struct.zend_atomic_bool_s = type { i8 }
%struct._zval_struct = type { %union._zend_value, %union.anon, %union.anon.2 }
%union._zend_value = type { i64 }
%union.anon = type { i32 }
%union.anon.2 = type { i32 }
%struct._zend_stack = type { i32, i32, i32, ptr }
%struct._zend_objects_store = type { ptr, i32, i32, i32 }
%struct._HashTableIterator = type { ptr, i32, i32 }
%union._zend_function = type { %struct._zend_op_array }
%struct._zend_op_array = type { i8, [3 x i8], i32, ptr, ptr, ptr, i32, i32, ptr, ptr, ptr, ptr, i32, i32, i32, i32, ptr, ptr, ptr, ptr, ptr, i32, i32, ptr, ptr, ptr, i32, i32, i32, i32, ptr, ptr, [6 x ptr] }
%struct._zend_op = type { ptr, %union._znode_op, %union._znode_op, %union._znode_op, i32, i32, i8, i8, i8, i8 }
%union._znode_op = type { i32 }
%struct._zend_array = type { %struct._zend_refcounted_h, %union.anon.4, i32, %union.anon.6, i32, i32, i32, i32, i64, ptr }
%struct._zend_refcounted_h = type { i32, %union.anon.3 }
%union.anon.3 = type { i32 }
%union.anon.4 = type { i32 }
%union.anon.6 = type { ptr }
%struct.zend_get_gc_buffer = type { ptr, ptr, ptr }
%struct._zend_call_stack = type { ptr, i64 }
%struct._zend_execute_data = type { ptr, ptr, ptr, ptr, %struct._zval_struct, ptr, ptr, ptr, ptr }
%struct._spl_array_object = type { %struct._zval_struct, i32, i32, i8, i8, ptr, ptr, ptr, ptr, ptr, ptr, ptr, %struct._zend_object }
%struct._zend_object = type { %struct._zend_refcounted_h, i32, ptr, ptr, ptr, [1 x %struct._zval_struct] }
%struct._zend_reference = type { %struct._zend_refcounted_h, %struct._zval_struct, %union.zend_property_info_source_list }
%union.zend_property_info_source_list = type { ptr }

@executor_globals = external global %struct._zend_executor_globals, align 8

; Function Attrs: nounwind uwtable
define internal ptr @spl_array_get_hash_table_ptr(ptr noundef %0) #0 {
  %2 = alloca ptr, align 8
  %3 = alloca ptr, align 8
  %4 = alloca ptr, align 8
  %5 = alloca i32, align 4
  %6 = alloca ptr, align 8
  %7 = alloca ptr, align 8
  %8 = alloca ptr, align 8
  %9 = alloca ptr, align 8
  store ptr %0, ptr %7, align 8
  %10 = load ptr, ptr %7, align 8
  %11 = getelementptr inbounds %struct._spl_array_object, ptr %10, i32 0, i32 2
  %12 = load i32, ptr %11, align 4
  %13 = and i32 %12, 16777216
  %14 = icmp ne i32 %13, 0
  br i1 %14, label %15, label %28

15:                                               ; preds = %1
  %16 = load ptr, ptr %7, align 8
  %17 = getelementptr inbounds %struct._spl_array_object, ptr %16, i32 0, i32 12
  %18 = getelementptr inbounds %struct._zend_object, ptr %17, i32 0, i32 4
  %19 = load ptr, ptr %18, align 8
  %20 = icmp ne ptr %19, null
  br i1 %20, label %24, label %21

21:                                               ; preds = %15
  %22 = load ptr, ptr %7, align 8
  %23 = getelementptr inbounds %struct._spl_array_object, ptr %22, i32 0, i32 12
  call void @rebuild_object_properties(ptr noundef %23)
  br label %24

24:                                               ; preds = %21, %15
  %25 = load ptr, ptr %7, align 8
  %26 = getelementptr inbounds %struct._spl_array_object, ptr %25, i32 0, i32 12
  %27 = getelementptr inbounds %struct._zend_object, ptr %26, i32 0, i32 4
  store ptr %27, ptr %6, align 8
  br label %112

28:                                               ; preds = %1
  %29 = load ptr, ptr %7, align 8
  %30 = getelementptr inbounds %struct._spl_array_object, ptr %29, i32 0, i32 2
  %31 = load i32, ptr %30, align 4
  %32 = and i32 %31, 33554432
  %33 = icmp ne i32 %32, 0
  br i1 %33, label %34, label %42

34:                                               ; preds = %28
  %35 = load ptr, ptr %7, align 8
  %36 = getelementptr inbounds %struct._spl_array_object, ptr %35, i32 0, i32 0
  %37 = getelementptr inbounds %struct._zval_struct, ptr %36, i32 0, i32 0
  %38 = load ptr, ptr %37, align 8
  %39 = call ptr @spl_array_from_obj(ptr noundef %38)
  store ptr %39, ptr %8, align 8
  %40 = load ptr, ptr %8, align 8
  %41 = call ptr @spl_array_get_hash_table_ptr(ptr noundef %40)
  store ptr %41, ptr %6, align 8
  br label %112

42:                                               ; preds = %28
  %43 = load ptr, ptr %7, align 8
  %44 = getelementptr inbounds %struct._spl_array_object, ptr %43, i32 0, i32 0
  store ptr %44, ptr %4, align 8
  %45 = load ptr, ptr %4, align 8
  %46 = getelementptr inbounds %struct._zval_struct, ptr %45, i32 0, i32 1
  %47 = load i8, ptr %46, align 8
  %48 = zext i8 %47 to i32
  %49 = icmp eq i32 %48, 7
  br i1 %49, label %50, label %54

50:                                               ; preds = %42
  %51 = load ptr, ptr %7, align 8
  %52 = getelementptr inbounds %struct._spl_array_object, ptr %51, i32 0, i32 0
  %53 = getelementptr inbounds %struct._zval_struct, ptr %52, i32 0, i32 0
  store ptr %53, ptr %6, align 8
  br label %112

54:                                               ; preds = %42
  %55 = load ptr, ptr %7, align 8
  %56 = getelementptr inbounds %struct._spl_array_object, ptr %55, i32 0, i32 0
  %57 = getelementptr inbounds %struct._zval_struct, ptr %56, i32 0, i32 0
  %58 = load ptr, ptr %57, align 8
  store ptr %58, ptr %9, align 8
  %59 = load ptr, ptr %9, align 8
  %60 = getelementptr inbounds %struct._zend_object, ptr %59, i32 0, i32 4
  %61 = load ptr, ptr %60, align 8
  %62 = icmp ne ptr %61, null
  br i1 %62, label %65, label %63

63:                                               ; preds = %54
  %64 = load ptr, ptr %9, align 8
  call void @rebuild_object_properties(ptr noundef %64)
  br label %109

65:                                               ; preds = %54
  %66 = load ptr, ptr %9, align 8
  %67 = getelementptr inbounds %struct._zend_object, ptr %66, i32 0, i32 4
  %68 = load ptr, ptr %67, align 8
  %69 = getelementptr inbounds %struct._zend_array, ptr %68, i32 0, i32 0
  store ptr %69, ptr %3, align 8
  %70 = load ptr, ptr %3, align 8
  %71 = load i32, ptr %70, align 4
  %72 = icmp ugt i32 %71, 1
  br i1 %72, label %73, label %108

73:                                               ; preds = %65
  %74 = load ptr, ptr %9, align 8
  %75 = getelementptr inbounds %struct._zend_object, ptr %74, i32 0, i32 4
  %76 = load ptr, ptr %75, align 8
  %77 = getelementptr inbounds %struct._zend_array, ptr %76, i32 0, i32 0
  %78 = getelementptr inbounds %struct._zend_refcounted_h, ptr %77, i32 0, i32 1
  %79 = load i32, ptr %78, align 4
  store i32 %79, ptr %5, align 4
  %80 = load i32, ptr %5, align 4
  %81 = and i32 %80, 1008
  %82 = and i32 %81, 64
  %83 = icmp ne i32 %82, 0
  %84 = xor i1 %83, true
  %85 = xor i1 %84, true
  %86 = xor i1 %85, true
  %87 = zext i1 %86 to i32
  %88 = sext i32 %87 to i64
  %89 = icmp ne i64 %88, 0
  br i1 %89, label %90, label %101

90:                                               ; preds = %73
  %91 = load ptr, ptr %9, align 8
  %92 = getelementptr inbounds %struct._zend_object, ptr %91, i32 0, i32 4
  %93 = load ptr, ptr %92, align 8
  %94 = getelementptr inbounds %struct._zend_array, ptr %93, i32 0, i32 0
  store ptr %94, ptr %2, align 8
  %95 = load ptr, ptr %2, align 8
  %96 = load i32, ptr %95, align 4
  %97 = icmp ugt i32 %96, 0
  call void @llvm.assume(i1 %97)
  %98 = load ptr, ptr %2, align 8
  %99 = load i32, ptr %98, align 4
  %100 = add i32 %99, -1
  store i32 %100, ptr %98, align 4
  br label %101

101:                                              ; preds = %90, %73
  %102 = load ptr, ptr %9, align 8
  %103 = getelementptr inbounds %struct._zend_object, ptr %102, i32 0, i32 4
  %104 = load ptr, ptr %103, align 8
  %105 = call ptr @zend_array_dup(ptr noundef %104)
  %106 = load ptr, ptr %9, align 8
  %107 = getelementptr inbounds %struct._zend_object, ptr %106, i32 0, i32 4
  store ptr %105, ptr %107, align 8
  br label %108

108:                                              ; preds = %101, %65
  br label %109

109:                                              ; preds = %108, %63
  %110 = load ptr, ptr %9, align 8
  %111 = getelementptr inbounds %struct._zend_object, ptr %110, i32 0, i32 4
  store ptr %111, ptr %6, align 8
  br label %112

112:                                              ; preds = %109, %50, %34, %24
  %113 = load ptr, ptr %6, align 8
  ret ptr %113
}

; Function Attrs: nounwind uwtable
define internal void @spl_array_create_ht_iter(ptr noundef %0, ptr noundef %1) #0 {
  %3 = alloca ptr, align 8
  %4 = alloca ptr, align 8
  store ptr %0, ptr %3, align 8
  store ptr %1, ptr %4, align 8
  %5 = load ptr, ptr %3, align 8
  %6 = load ptr, ptr %3, align 8
  %7 = call i32 @zend_hash_get_current_pos(ptr noundef %6)
  %8 = call i32 @zend_hash_iterator_add(ptr noundef %5, i32 noundef %7)
  %9 = load ptr, ptr %4, align 8
  %10 = getelementptr inbounds %struct._spl_array_object, ptr %9, i32 0, i32 1
  store i32 %8, ptr %10, align 8
  %11 = load ptr, ptr %3, align 8
  %12 = load ptr, ptr getelementptr inbounds (%struct._zend_executor_globals, ptr @executor_globals, i32 0, i32 60), align 8
  %13 = load ptr, ptr %4, align 8
  %14 = getelementptr inbounds %struct._spl_array_object, ptr %13, i32 0, i32 1
  %15 = load i32, ptr %14, align 8
  %16 = zext i32 %15 to i64
  %17 = getelementptr inbounds %struct._HashTableIterator, ptr %12, i64 %16
  %18 = getelementptr inbounds %struct._HashTableIterator, ptr %17, i32 0, i32 1
  call void @zend_hash_internal_pointer_reset_ex(ptr noundef %11, ptr noundef %18)
  %19 = load ptr, ptr %4, align 8
  %20 = load ptr, ptr %3, align 8
  %21 = call i32 @spl_array_skip_protected(ptr noundef %19, ptr noundef %20)
  ret void
}

; Function Attrs: nounwind uwtable
define internal ptr @spl_array_get_hash_table(ptr noundef %0) #0 {
  %2 = alloca ptr, align 8
  store ptr %0, ptr %2, align 8
  %3 = load ptr, ptr %2, align 8
  %4 = call ptr @spl_array_get_hash_table_ptr(ptr noundef %3)
  %5 = load ptr, ptr %4, align 8
  ret ptr %5
}

; Function Attrs: nounwind uwtable
define internal ptr @spl_array_from_obj(ptr noundef %0) #0 {
  %2 = alloca ptr, align 8
  store ptr %0, ptr %2, align 8
  %3 = load ptr, ptr %2, align 8
  %4 = getelementptr inbounds i8, ptr %3, i64 -88
  ret ptr %4
}

; Function Attrs: nounwind uwtable
define hidden void @zim_RecursiveArrayIterator_hasChildren(ptr noundef %0, ptr noundef %1) #0 {
  %3 = alloca ptr, align 8
  %4 = alloca ptr, align 8
  %5 = alloca ptr, align 8
  %6 = alloca ptr, align 8
  %7 = alloca ptr, align 8
  %8 = alloca ptr, align 8
  %9 = alloca ptr, align 8
  %10 = alloca ptr, align 8
  %11 = alloca ptr, align 8
  %12 = alloca ptr, align 8
  %13 = alloca ptr, align 8
  %14 = alloca ptr, align 8
  store ptr %0, ptr %9, align 8
  store ptr %1, ptr %10, align 8
  %15 = load ptr, ptr %9, align 8
  %16 = getelementptr inbounds %struct._zend_execute_data, ptr %15, i32 0, i32 4
  store ptr %16, ptr %11, align 8
  %17 = load ptr, ptr %11, align 8
  %18 = getelementptr inbounds %struct._zval_struct, ptr %17, i32 0, i32 0
  %19 = load ptr, ptr %18, align 8
  %20 = call ptr @spl_array_from_obj(ptr noundef %19)
  store ptr %20, ptr %13, align 8
  %21 = load ptr, ptr %13, align 8
  %22 = call ptr @spl_array_get_hash_table(ptr noundef %21)
  store ptr %22, ptr %14, align 8
  %23 = load ptr, ptr %9, align 8
  %24 = getelementptr inbounds %struct._zend_execute_data, ptr %23, i32 0, i32 4
  %25 = getelementptr inbounds %struct._zval_struct, ptr %24, i32 0, i32 2
  %26 = load i32, ptr %25, align 4
  %27 = icmp eq i32 %26, 0
  %28 = xor i1 %27, true
  %29 = xor i1 %28, true
  %30 = zext i1 %29 to i32
  %31 = sext i32 %30 to i64
  %32 = icmp ne i64 %31, 0
  br i1 %32, label %33, label %34

33:                                               ; preds = %2
  br label %35

34:                                               ; preds = %2
  call void @zend_wrong_parameters_none_error()
  br label %35

35:                                               ; preds = %34, %33
  %36 = phi i32 [ 0, %33 ], [ -1, %34 ]
  %37 = icmp eq i32 %36, -1
  br i1 %37, label %38, label %43

38:                                               ; preds = %35
  br label %39

39:                                               ; preds = %38
  %40 = load ptr, ptr getelementptr inbounds (%struct._zend_executor_globals, ptr @executor_globals, i32 0, i32 50), align 8
  %41 = icmp ne ptr %40, null
  call void @llvm.assume(i1 %41)
  br label %131

42:                                               ; No predecessors!
  br label %43

43:                                               ; preds = %42, %35
  %44 = load ptr, ptr %14, align 8
  %45 = load ptr, ptr %14, align 8
  %46 = load ptr, ptr %13, align 8
  store ptr %45, ptr %3, align 8
  store ptr %46, ptr %4, align 8
  %47 = load ptr, ptr %4, align 8
  %48 = getelementptr inbounds %struct._spl_array_object, ptr %47, i32 0, i32 1
  %49 = load i32, ptr %48, align 8
  %50 = icmp eq i32 %49, -1
  br i1 %50, label %51, label %54

51:                                               ; preds = %43
  %52 = load ptr, ptr %3, align 8
  %53 = load ptr, ptr %4, align 8
  call void @spl_array_create_ht_iter(ptr noundef %52, ptr noundef %53)
  br label %54

54:                                               ; preds = %51, %43
  %55 = load ptr, ptr getelementptr inbounds (%struct._zend_executor_globals, ptr @executor_globals, i32 0, i32 60), align 8
  %56 = load ptr, ptr %4, align 8
  %57 = getelementptr inbounds %struct._spl_array_object, ptr %56, i32 0, i32 1
  %58 = load i32, ptr %57, align 8
  %59 = zext i32 %58 to i64
  %60 = getelementptr inbounds %struct._HashTableIterator, ptr %55, i64 %59
  %61 = getelementptr inbounds %struct._HashTableIterator, ptr %60, i32 0, i32 1
  %62 = call ptr @zend_hash_get_current_data_ex(ptr noundef %44, ptr noundef %61)
  store ptr %62, ptr %12, align 8
  %63 = icmp eq ptr %62, null
  br i1 %63, label %64, label %71

64:                                               ; preds = %54
  br label %65

65:                                               ; preds = %64
  br label %66

66:                                               ; preds = %65
  %67 = load ptr, ptr %10, align 8
  %68 = getelementptr inbounds %struct._zval_struct, ptr %67, i32 0, i32 1
  store i32 2, ptr %68, align 8
  br label %69

69:                                               ; preds = %66
  br label %131

70:                                               ; No predecessors!
  br label %71

71:                                               ; preds = %70, %54
  %72 = load ptr, ptr %12, align 8
  store ptr %72, ptr %5, align 8
  %73 = load ptr, ptr %5, align 8
  %74 = getelementptr inbounds %struct._zval_struct, ptr %73, i32 0, i32 1
  %75 = load i8, ptr %74, align 8
  %76 = zext i8 %75 to i32
  %77 = icmp eq i32 %76, 12
  br i1 %77, label %78, label %82

78:                                               ; preds = %71
  %79 = load ptr, ptr %12, align 8
  %80 = getelementptr inbounds %struct._zval_struct, ptr %79, i32 0, i32 0
  %81 = load ptr, ptr %80, align 8
  store ptr %81, ptr %12, align 8
  br label %82

82:                                               ; preds = %78, %71
  br label %83

83:                                               ; preds = %82
  %84 = load ptr, ptr %12, align 8
  store ptr %84, ptr %6, align 8
  %85 = load ptr, ptr %6, align 8
  %86 = getelementptr inbounds %struct._zval_struct, ptr %85, i32 0, i32 1
  %87 = load i8, ptr %86, align 8
  %88 = zext i8 %87 to i32
  %89 = icmp eq i32 %88, 10
  %90 = xor i1 %89, true
  %91 = xor i1 %90, true
  %92 = zext i1 %91 to i32
  %93 = sext i32 %92 to i64
  %94 = icmp ne i64 %93, 0
  br i1 %94, label %95, label %100

95:                                               ; preds = %83
  %96 = load ptr, ptr %12, align 8
  %97 = getelementptr inbounds %struct._zval_struct, ptr %96, i32 0, i32 0
  %98 = load ptr, ptr %97, align 8
  %99 = getelementptr inbounds %struct._zend_reference, ptr %98, i32 0, i32 1
  store ptr %99, ptr %12, align 8
  br label %100

100:                                              ; preds = %95, %83
  br label %101

101:                                              ; preds = %100
  br label %102

102:                                              ; preds = %101
  br label %103

103:                                              ; preds = %102
  %104 = load ptr, ptr %12, align 8
  store ptr %104, ptr %7, align 8
  %105 = load ptr, ptr %7, align 8
  %106 = getelementptr inbounds %struct._zval_struct, ptr %105, i32 0, i32 1
  %107 = load i8, ptr %106, align 8
  %108 = zext i8 %107 to i32
  %109 = icmp eq i32 %108, 7
  br i1 %109, label %125, label %110

110:                                              ; preds = %103
  %111 = load ptr, ptr %12, align 8
  store ptr %111, ptr %8, align 8
  %112 = load ptr, ptr %8, align 8
  %113 = getelementptr inbounds %struct._zval_struct, ptr %112, i32 0, i32 1
  %114 = load i8, ptr %113, align 8
  %115 = zext i8 %114 to i32
  %116 = icmp eq i32 %115, 8
  br i1 %116, label %117, label %123

117:                                              ; preds = %110
  %118 = load ptr, ptr %13, align 8
  %119 = getelementptr inbounds %struct._spl_array_object, ptr %118, i32 0, i32 2
  %120 = load i32, ptr %119, align 4
  %121 = and i32 %120, 4
  %122 = icmp eq i32 %121, 0
  br label %123

123:                                              ; preds = %117, %110
  %124 = phi i1 [ false, %110 ], [ %122, %117 ]
  br label %125

125:                                              ; preds = %123, %103
  %126 = phi i1 [ true, %103 ], [ %124, %123 ]
  %127 = select i1 %126, i32 3, i32 2
  %128 = load ptr, ptr %10, align 8
  %129 = getelementptr inbounds %struct._zval_struct, ptr %128, i32 0, i32 1
  store i32 %127, ptr %129, align 8
  br label %130

130:                                              ; preds = %125
  br label %131

131:                                              ; preds = %130, %69, %39
  ret void
}