; Function Attrs: nounwind uwtable
define hidden void @zim_RecursiveArrayIterator_hasChildren(ptr nocapture noundef readonly %0, ptr nocapture noundef writeonly %1) #0 {
  %3 = getelementptr inbounds i8, ptr %0, i64 32
  %4 = load ptr, ptr %3, align 8
  %5 = getelementptr inbounds i8, ptr %4, i64 -88
  %6 = getelementptr inbounds i8, ptr %4, i64 -68
  %7 = load i32, ptr %6, align 4
  %8 = and i32 %7, 16777216
  %.not30.i.i = icmp eq i32 %8, 0
  br i1 %.not30.i.i, label %.lr.ph.i.i, label %tailrecurse._crit_edge.i.i

tailrecurse._crit_edge.i.i:                       ; preds = %tailrecurse.i.i, %2
  %.tr.lcssa.i.i = phi ptr [ %5, %2 ], [ %16, %tailrecurse.i.i ]
  %9 = getelementptr inbounds i8, ptr %.tr.lcssa.i.i, i64 120
  %10 = load ptr, ptr %9, align 8
  %.not28.i.i = icmp eq ptr %10, null
  br i1 %.not28.i.i, label %11, label %spl_array_get_hash_table.exit

11:                                               ; preds = %tailrecurse._crit_edge.i.i
  %12 = getelementptr inbounds i8, ptr %.tr.lcssa.i.i, i64 88
  tail call void @rebuild_object_properties(ptr noundef nonnull %12) #11
  br label %spl_array_get_hash_table.exit

.lr.ph.i.i:                                       ; preds = %2, %tailrecurse.i.i
  %13 = phi i32 [ %18, %tailrecurse.i.i ], [ %7, %2 ]
  %.tr31.i.i = phi ptr [ %16, %tailrecurse.i.i ], [ %5, %2 ]
  %14 = and i32 %13, 33554432
  %.not25.i.i = icmp eq i32 %14, 0
  br i1 %.not25.i.i, label %20, label %tailrecurse.i.i

tailrecurse.i.i:                                  ; preds = %.lr.ph.i.i
  %15 = load ptr, ptr %.tr31.i.i, align 8
  %16 = getelementptr inbounds i8, ptr %15, i64 -88
  %17 = getelementptr inbounds i8, ptr %15, i64 -68
  %18 = load i32, ptr %17, align 4
  %19 = and i32 %18, 16777216
  %.not.i.i = icmp eq i32 %19, 0
  br i1 %.not.i.i, label %.lr.ph.i.i, label %tailrecurse._crit_edge.i.i

20:                                               ; preds = %.lr.ph.i.i
  %21 = getelementptr inbounds i8, ptr %.tr31.i.i, i64 8
  %22 = load i8, ptr %21, align 8
  %23 = icmp eq i8 %22, 7
  br i1 %23, label %spl_array_get_hash_table.exit, label %24

24:                                               ; preds = %20
  %25 = load ptr, ptr %.tr31.i.i, align 8
  %26 = getelementptr inbounds i8, ptr %25, i64 32
  %27 = load ptr, ptr %26, align 8
  %.not26.i.i = icmp eq ptr %27, null
  br i1 %.not26.i.i, label %28, label %29

28:                                               ; preds = %24
  tail call void @rebuild_object_properties(ptr noundef nonnull %25) #11
  br label %spl_array_get_hash_table.exit

29:                                               ; preds = %24
  %30 = load i32, ptr %27, align 4
  %31 = icmp ugt i32 %30, 1
  br i1 %31, label %32, label %spl_array_get_hash_table.exit

32:                                               ; preds = %29
  %33 = getelementptr inbounds i8, ptr %27, i64 4
  %34 = load i32, ptr %33, align 4
  %35 = and i32 %34, 64
  %.not27.i.i = icmp eq i32 %35, 0
  br i1 %.not27.i.i, label %36, label %38

36:                                               ; preds = %32
  %37 = add i32 %30, -1
  store i32 %37, ptr %27, align 4
  %.pre.i.i = load ptr, ptr %26, align 8
  br label %38

38:                                               ; preds = %36, %32
  %39 = phi ptr [ %.pre.i.i, %36 ], [ %27, %32 ]
  %40 = tail call ptr @zend_array_dup(ptr noundef %39) #11
  store ptr %40, ptr %26, align 8
  br label %spl_array_get_hash_table.exit

spl_array_get_hash_table.exit:                    ; preds = %tailrecurse._crit_edge.i.i, %11, %20, %28, %29, %38
  %.0.i.i = phi ptr [ %9, %11 ], [ %9, %tailrecurse._crit_edge.i.i ], [ %.tr31.i.i, %20 ], [ %26, %29 ], [ %26, %38 ], [ %26, %28 ]
  %41 = load ptr, ptr %.0.i.i, align 8
  %42 = getelementptr inbounds i8, ptr %0, i64 44
  %43 = load i32, ptr %42, align 4
  %.not = icmp eq i32 %43, 0
  br i1 %.not, label %.critedge, label %44

44:                                               ; preds = %spl_array_get_hash_table.exit
  tail call void @zend_wrong_parameters_none_error() #11
  %45 = load ptr, ptr getelementptr inbounds (%struct._zend_executor_globals, ptr @executor_globals, i64 0, i32 50), align 8
  %46 = icmp ne ptr %45, null
  tail call void @llvm.assume(i1 %46)
  br label %87

.critedge:                                        ; preds = %spl_array_get_hash_table.exit
  %47 = getelementptr inbounds i8, ptr %4, i64 -72
  %48 = load i32, ptr %47, align 8
  %49 = icmp eq i32 %48, -1
  br i1 %49, label %50, label %57

50:                                               ; preds = %.critedge
  %51 = tail call i32 @zend_hash_get_current_pos(ptr noundef %41) #11
  %52 = tail call i32 @zend_hash_iterator_add(ptr noundef %41, i32 noundef %51) #11
  store i32 %52, ptr %47, align 8
  %53 = load ptr, ptr getelementptr inbounds (%struct._zend_executor_globals, ptr @executor_globals, i64 0, i32 60), align 8
  %54 = zext i32 %52 to i64
  %55 = getelementptr inbounds %struct._HashTableIterator, ptr %53, i64 %54, i32 1
  tail call void @zend_hash_internal_pointer_reset_ex(ptr noundef %41, ptr noundef nonnull %55) #11
  %56 = tail call fastcc i32 @spl_array_skip_protected(ptr noundef nonnull %5, ptr noundef %41), !range !4
  %.pre = load i32, ptr %47, align 8
  br label %57

57:                                               ; preds = %50, %.critedge
  %58 = phi i32 [ %.pre, %50 ], [ %48, %.critedge ]
  %59 = load ptr, ptr getelementptr inbounds (%struct._zend_executor_globals, ptr @executor_globals, i64 0, i32 60), align 8
  %60 = zext i32 %58 to i64
  %61 = getelementptr inbounds %struct._HashTableIterator, ptr %59, i64 %60, i32 1
  %62 = tail call ptr @zend_hash_get_current_data_ex(ptr noundef %41, ptr noundef nonnull %61) #11
  %63 = icmp eq ptr %62, null
  br i1 %63, label %64, label %66

64:                                               ; preds = %57
  %65 = getelementptr inbounds i8, ptr %1, i64 8
  store i32 2, ptr %65, align 8
  br label %87

66:                                               ; preds = %57
  %67 = getelementptr inbounds i8, ptr %62, i64 8
  %68 = load i8, ptr %67, align 8
  %69 = icmp eq i8 %68, 12
  br i1 %69, label %70, label %72

70:                                               ; preds = %66
  %71 = load ptr, ptr %62, align 8
  %.phi.trans.insert = getelementptr inbounds i8, ptr %71, i64 8
  %.pre28 = load i8, ptr %.phi.trans.insert, align 8
  br label %72

72:                                               ; preds = %66, %70
  %73 = phi i8 [ %.pre28, %70 ], [ %68, %66 ]
  %.0 = phi ptr [ %71, %70 ], [ %62, %66 ]
  %74 = icmp eq i8 %73, 10
  br i1 %74, label %75, label %77

75:                                               ; preds = %72
  %76 = load ptr, ptr %.0, align 8
  %.phi.trans.insert29 = getelementptr inbounds i8, ptr %76, i64 16
  %.pre30 = load i8, ptr %.phi.trans.insert29, align 8
  br label %77

77:                                               ; preds = %72, %75
  %78 = phi i8 [ %.pre30, %75 ], [ %73, %72 ]
  switch i8 %78, label %.fold.split [
    i8 7, label %84
    i8 8, label %79
  ]

79:                                               ; preds = %77
  %80 = load i32, ptr %6, align 4
  %81 = and i32 %80, 4
  %82 = icmp eq i32 %81, 0
  %83 = select i1 %82, i32 3, i32 2
  br label %84

.fold.split:                                      ; preds = %77
  br label %84

84:                                               ; preds = %77, %.fold.split, %79
  %85 = phi i32 [ 3, %77 ], [ %83, %79 ], [ 2, %.fold.split ]
  %86 = getelementptr inbounds i8, ptr %1, i64 8
  store i32 %85, ptr %86, align 8
  br label %87

87:                                               ; preds = %84, %64, %44
  ret void
}